target datalayout = "e-m:e-p270:32:32-p271:32:32-p272:64:64-i64:64-i128:128-f80:128-n8:16:32:64-S128"
target triple = "x86_64-pc-linux-gnu"

%struct.sockaddr = type { i16, [14 x i8] }
%struct.sockaddr_in = type { i16, i16, %struct.in_addr, [8 x i8] }
%struct.in_addr = type { i32 }
%struct.sockaddr_in6 = type { i16, i16, i32, %struct.in6_addr, i32 }
%struct.in6_addr = type { %union.anon }
%union.anon = type { [4 x i32] }

; Function Attrs: inlinehint nounwind uwtable
define internal i32 @__bswap_32(i32 noundef %0) #4 {
  %2 = alloca i32, align 4
  store i32 %0, ptr %2, align 4, !tbaa !4
  %3 = load i32, ptr %2, align 4, !tbaa !4
  %4 = and i32 %3, -16777216
  %5 = lshr i32 %4, 24
  %6 = load i32, ptr %2, align 4, !tbaa !4
  %7 = and i32 %6, 16711680
  %8 = lshr i32 %7, 8
  %9 = or i32 %5, %8
  %10 = load i32, ptr %2, align 4, !tbaa !4
  %11 = and i32 %10, 65280
  %12 = shl i32 %11, 8
  %13 = or i32 %9, %12
  %14 = load i32, ptr %2, align 4, !tbaa !4
  %15 = and i32 %14, 255
  %16 = shl i32 %15, 24
  %17 = or i32 %13, %16
  ret i32 %17
}

; Function Attrs: nounwind uwtable
define i32 @ff_is_multicast_address(ptr noundef %0) #0 {
  %2 = alloca i32, align 4
  %3 = alloca ptr, align 8
  store ptr %0, ptr %3, align 8, !tbaa !18
  %4 = load ptr, ptr %3, align 8, !tbaa !18
  %5 = getelementptr inbounds nuw %struct.sockaddr, ptr %4, i32 0, i32 0
  %6 = load i16, ptr %5, align 2, !tbaa !20
  %7 = zext i16 %6 to i32
  %8 = icmp eq i32 %7, 2
  br i1 %8, label %9, label %18

9:                                                ; preds = %1
  %10 = load ptr, ptr %3, align 8, !tbaa !18
  %11 = getelementptr inbounds nuw %struct.sockaddr_in, ptr %10, i32 0, i32 2
  %12 = getelementptr inbounds nuw %struct.in_addr, ptr %11, i32 0, i32 0
  %13 = load i32, ptr %12, align 4, !tbaa !22
  %14 = call i32 @__bswap_32(i32 noundef %13)
  %15 = and i32 %14, -268435456
  %16 = icmp eq i32 %15, -536870912
  %17 = zext i1 %16 to i32
  store i32 %17, ptr %2, align 4
  br label %33

18:                                               ; preds = %1
  %19 = load ptr, ptr %3, align 8, !tbaa !18
  %20 = getelementptr inbounds nuw %struct.sockaddr, ptr %19, i32 0, i32 0
  %21 = load i16, ptr %20, align 2, !tbaa !20
  %22 = zext i16 %21 to i32
  %23 = icmp eq i32 %22, 10
  br i1 %23, label %24, label %32

24:                                               ; preds = %18
  %25 = load ptr, ptr %3, align 8, !tbaa !18
  %26 = getelementptr inbounds nuw %struct.sockaddr_in6, ptr %25, i32 0, i32 3
  %27 = getelementptr inbounds i8, ptr %26, i64 0
  %28 = load i8, ptr %27, align 4, !tbaa !25
  %29 = zext i8 %28 to i32
  %30 = icmp eq i32 %29, 255
  %31 = zext i1 %30 to i32
  store i32 %31, ptr %2, align 4
  br label %33

32:                                               ; preds = %18
  store i32 0, ptr %2, align 4
  br label %33

33:                                               ; preds = %32, %24, %9
  %34 = load i32, ptr %2, align 4
  ret i32 %34
}