; Function Attrs: mustprogress nofree norecurse nosync nounwind willreturn memory(argmem: read) uwtable
define range(i32 0, 2) i32 @ff_is_multicast_address(ptr noundef readonly captures(none) %0) local_unnamed_addr #5 {
  %2 = load i16, ptr %0, align 2, !tbaa !13
  switch i16 %2, label %12 [
    i16 2, label %3
    i16 10, label %8
  ]

3:                                                ; preds = %1
  %4 = getelementptr inbounds nuw i8, ptr %0, i64 4
  %5 = load i32, ptr %4, align 4, !tbaa !15
  %6 = and i32 %5, 240
  %7 = icmp eq i32 %6, 224
  br label %12

8:                                                ; preds = %1
  %9 = getelementptr inbounds nuw i8, ptr %0, i64 8
  %10 = load i8, ptr %9, align 4, !tbaa !18
  %11 = icmp eq i8 %10, -1
  br label %12

12:                                               ; preds = %1, %8, %3
  %.0.shrunk = phi i1 [ %7, %3 ], [ %11, %8 ], [ false, %1 ]
  %.0 = zext i1 %.0.shrunk to i32
  ret i32 %.0
}